Certificate:
    Data:
        Version: 3 (0x2)
        Serial Number: 2 (0x2)
    Signature Algorithm: sha1WithRSAEncryption
        Issuer: DC=org, DC=simple, O=Simple Inc, OU=Simple Root CA, CN=Simple Root CA
        Validity
            Not Before: May  9 19:16:22 2021 GMT
            Not After : May  9 19:16:22 2031 GMT
        Subject: DC=org, DC=simple, O=Simple Inc, OU=Simple Signing CA, CN=Simple Signing CA
        Subject Public Key Info:
            Public Key Algorithm: rsaEncryption
                Public-Key: (2048 bit)
                Modulus:
                    00:cc:d7:fe:6d:6f:b7:e1:15:61:88:7a:49:2e:6e:
                    7a:99:79:d8:60:15:94:29:3d:71:bb:ae:b1:8e:f1:
                    95:35:b1:6a:25:be:34:db:65:d8:5a:43:1d:57:a3:
                    c7:8b:7a:52:a9:ba:03:83:5c:d0:33:f0:e3:31:4f:
                    f4:6e:95:b9:3e:be:0a:c2:7f:c8:a4:72:83:ad:fa:
                    82:a9:34:57:81:b1:e3:d6:1b:14:79:6b:3b:60:ed:
                    53:f8:d2:14:3c:07:e8:23:56:78:b4:be:b0:a5:53:
                    72:8b:4d:d1:5f:68:80:fc:5d:f2:1a:41:55:ba:84:
                    86:e0:a8:50:59:58:37:35:a5:d8:0a:79:14:be:c3:
                    90:a5:61:45:84:c9:16:78:9b:29:24:32:58:38:c1:
                    a5:06:be:8a:62:24:4f:e9:a7:fe:2f:bd:e8:1d:b8:
                    f7:6c:a7:d9:a0:b1:10:e6:8d:2a:42:bb:e2:98:ef:
                    ef:0f:af:1e:d8:a7:bb:72:9a:4e:2d:92:b4:43:02:
                    fb:c6:46:41:0f:68:63:9d:d7:61:38:9c:40:db:c5:
                    20:fc:c6:22:c2:74:be:78:88:eb:70:af:ba:97:a0:
                    23:0a:90:d3:f3:c6:2f:1c:7c:4b:e2:85:86:0c:68:
                    c1:ad:c6:97:99:fb:5f:d8:d3:a8:79:a4:a9:16:5f:
                    39:09
                Exponent: 65537 (0x10001)
        X509v3 extensions:
            X509v3 Key Usage: critical
                Certificate Sign, CRL Sign
            X509v3 Basic Constraints: critical
                CA:TRUE, pathlen:0
            X509v3 Subject Key Identifier: 
                28:5B:10:B8:13:CF:53:7D:5B:03:6A:6B:99:0E:02:9C:51:03:BE:CB
            X509v3 Authority Key Identifier: 
                keyid:B0:8B:C7:D6:79:BB:9A:02:3D:72:AF:22:08:AB:9A:D4:B4:8C:FB:FD

    Signature Algorithm: sha1WithRSAEncryption
         ae:63:05:cf:2e:0c:11:ed:97:2e:31:7f:8f:40:b6:a6:17:88:
         db:ce:56:df:10:e3:7d:6c:39:90:91:ee:ba:b2:c7:db:e1:27:
         be:19:ab:dd:f3:81:b0:9c:ba:91:47:db:e4:54:5b:6d:50:af:
         99:8e:5e:72:33:63:15:0f:0f:86:a5:83:04:ed:71:30:57:ab:
         cb:c8:78:0b:b8:c7:b4:9e:0f:78:cf:8c:1b:9d:d8:6a:35:6d:
         e8:70:62:7c:e8:c1:7c:59:66:3c:7c:7e:71:71:83:61:a6:9c:
         95:43:cd:78:6f:32:6b:7d:33:ee:81:1b:a8:e2:87:71:fb:d2:
         57:4e:f7:d8:a9:41:8d:f4:fa:9e:81:74:52:86:c0:b3:5e:e7:
         ea:1f:0f:f8:e6:fc:ed:1c:47:16:82:8b:6f:b9:f3:37:9f:8f:
         b7:5f:bd:6c:96:9e:19:a2:52:a1:b2:0a:13:af:88:cc:b0:25:
         19:0f:9d:0c:53:e9:be:a0:c8:58:b0:7b:bd:b4:68:80:05:d4:
         9e:1d:08:e6:e6:f8:5a:a3:51:7e:c7:41:87:5f:c1:61:d9:73:
         87:87:2f:86:df:1c:29:25:02:de:25:0f:44:a7:a5:b9:f0:c0:
         21:82:fb:98:e3:2e:84:8a:eb:19:8f:b7:c9:c4:bf:5a:6a:c4:
         10:67:74:0b
-----BEGIN CERTIFICATE-----
MIIDzzCCAregAwIBAgIBAjANBgkqhkiG9w0BAQUFADB0MRMwEQYKCZImiZPyLGQB
GRYDb3JnMRYwFAYKCZImiZPyLGQBGRYGc2ltcGxlMRMwEQYDVQQKDApTaW1wbGUg
SW5jMRcwFQYDVQQLDA5TaW1wbGUgUm9vdCBDQTEXMBUGA1UEAwwOU2ltcGxlIFJv
b3QgQ0EwHhcNMjEwNTA5MTkxNjIyWhcNMzEwNTA5MTkxNjIyWjB6MRMwEQYKCZIm
iZPyLGQBGRYDb3JnMRYwFAYKCZImiZPyLGQBGRYGc2ltcGxlMRMwEQYDVQQKDApT
aW1wbGUgSW5jMRowGAYDVQQLDBFTaW1wbGUgU2lnbmluZyBDQTEaMBgGA1UEAwwR
U2ltcGxlIFNpZ25pbmcgQ0EwggEiMA0GCSqGSIb3DQEBAQUAA4IBDwAwggEKAoIB
AQDM1/5tb7fhFWGIekkubnqZedhgFZQpPXG7rrGO8ZU1sWolvjTbZdhaQx1Xo8eL
elKpugODXNAz8OMxT/Rulbk+vgrCf8ikcoOt+oKpNFeBsePWGxR5aztg7VP40hQ8
B+gjVni0vrClU3KLTdFfaID8XfIaQVW6hIbgqFBZWDc1pdgKeRS+w5ClYUWEyRZ4
mykkMlg4waUGvopiJE/pp/4vvegduPdsp9mgsRDmjSpCu+KY7+8Prx7Yp7tymk4t
krRDAvvGRkEPaGOd12E4nEDbxSD8xiLCdL54iOtwr7qXoCMKkNPzxi8cfEvihYYM
aMGtxpeZ+1/Y06h5pKkWXzkJAgMBAAGjZjBkMA4GA1UdDwEB/wQEAwIBBjASBgNV
HRMBAf8ECDAGAQH/AgEAMB0GA1UdDgQWBBQoWxC4E89TfVsDamuZDgKcUQO+yzAf
BgNVHSMEGDAWgBSwi8fWebuaAj1yryIIq5rUtIz7/TANBgkqhkiG9w0BAQUFAAOC
AQEArmMFzy4MEe2XLjF/j0C2pheI285W3xDjfWw5kJHuurLH2+Envhmr3fOBsJy6
kUfb5FRbbVCvmY5ecjNjFQ8PhqWDBO1xMFery8h4C7jHtJ4PeM+MG53YajVt6HBi
fOjBfFlmPHx+cXGDYaaclUPNeG8ya30z7oEbqOKHcfvSV0732KlBjfT6noF0UobA
s17n6h8P+Ob87RxHFoKLb7nzN5+Pt1+9bJaeGaJSobIKE6+IzLAlGQ+dDFPpvqDI
WLB7vbRogAXUnh0I5ub4WqNRfsdBh1/BYdlzh4cvht8cKSUC3iUPRKelufDAIYL7
mOMuhIrrGY+3ycS/WmrEEGd0Cw==
-----END CERTIFICATE-----
