Certificate:
    Data:
        Version: 3 (0x2)
        Serial Number: 1 (0x1)
    Signature Algorithm: sha1WithRSAEncryption
        Issuer: DC=org, DC=simple, O=Simple Inc, OU=Simple Root CA, CN=Simple Root CA
        Validity
            Not Before: May  9 19:01:32 2021 GMT
            Not After : May  9 19:01:32 2031 GMT
        Subject: DC=org, DC=simple, O=Simple Inc, OU=Simple Root CA, CN=Simple Root CA
        Subject Public Key Info:
            Public Key Algorithm: rsaEncryption
                Public-Key: (2048 bit)
                Modulus:
                    00:d7:a1:92:bc:a2:05:91:91:da:7d:3c:52:42:fa:
                    6a:78:ef:42:06:a7:e0:43:06:ff:ad:05:56:d0:f8:
                    84:85:66:66:ba:e6:1a:97:31:07:dd:08:e2:6b:89:
                    de:45:f2:70:b9:84:28:eb:12:cb:8a:00:9f:4c:84:
                    52:db:e9:70:28:5c:35:05:30:09:8f:2e:87:af:1f:
                    79:cd:d0:90:35:3d:fd:ac:d7:4d:21:bf:59:0d:71:
                    c4:7e:ec:f1:45:cd:f6:fb:d3:6a:dc:bf:22:4e:95:
                    e7:c4:27:bc:11:9c:b2:5d:80:53:3a:49:cf:ae:ef:
                    6b:bb:2d:f3:bd:77:f2:d5:fd:22:56:c5:87:ff:60:
                    f1:a4:77:0f:78:54:28:b5:ca:39:1a:cc:1c:31:90:
                    4f:cc:10:c9:7f:72:d2:82:10:0e:f0:56:20:f8:f3:
                    96:70:59:31:1c:aa:05:51:84:1a:2e:26:67:12:45:
                    09:70:b8:fa:9b:9b:c1:15:e5:1b:63:80:14:5a:f1:
                    82:3e:c7:d6:73:e0:ad:6a:b9:2b:3e:75:ff:9a:f2:
                    a1:7d:18:3a:4a:34:d1:ef:0b:63:51:ee:61:8a:7b:
                    f3:6b:51:0a:84:02:b3:7d:b2:98:92:63:68:71:09:
                    71:23:41:75:f8:ac:95:b7:dc:a7:5e:43:02:69:e7:
                    6d:b7
                Exponent: 65537 (0x10001)
        X509v3 extensions:
            X509v3 Key Usage: critical
                Certificate Sign, CRL Sign
            X509v3 Basic Constraints: critical
                CA:TRUE
            X509v3 Subject Key Identifier: 
                B0:8B:C7:D6:79:BB:9A:02:3D:72:AF:22:08:AB:9A:D4:B4:8C:FB:FD
            X509v3 Authority Key Identifier: 
                keyid:B0:8B:C7:D6:79:BB:9A:02:3D:72:AF:22:08:AB:9A:D4:B4:8C:FB:FD

    Signature Algorithm: sha1WithRSAEncryption
         91:a0:56:aa:00:da:14:b9:8e:b8:ee:80:8b:79:72:b0:b5:18:
         71:2f:f6:d4:f7:f7:80:a8:8b:8c:46:c9:2f:2c:11:51:35:9f:
         39:7f:32:5a:75:22:af:89:8e:33:2f:71:ca:7d:dd:03:45:f1:
         29:f1:13:2b:f0:0b:98:94:19:09:a2:3e:ac:23:66:ae:5a:e4:
         c7:58:7b:08:24:5c:62:c5:f0:59:87:ad:c1:72:bd:85:5d:62:
         b6:fa:80:5d:33:74:52:e6:b3:e8:7f:32:fc:2b:7c:a6:98:9b:
         04:70:f5:bc:1e:97:5f:e4:b2:68:4e:77:9e:1a:6b:d9:e1:ff:
         24:ec:b9:62:9f:e6:71:7c:f8:cb:af:4c:b2:f0:68:33:a9:51:
         c4:ed:6d:f4:b2:cf:68:b5:08:5b:21:b7:26:b0:09:1f:26:5a:
         a5:3c:3f:30:e0:fb:e6:24:64:f3:fd:0f:a9:12:42:87:c4:47:
         53:3b:62:fe:07:d5:bf:bc:0a:10:d4:89:4b:30:1f:57:d2:28:
         84:15:e8:4a:55:c8:28:66:85:04:b4:61:18:bd:01:31:90:76:
         cb:26:c0:f2:06:e5:4b:78:9d:97:3c:d2:57:8c:c3:40:de:a9:
         1a:f8:c5:cf:fd:e7:5a:e0:de:3d:64:1b:68:a8:5c:bc:01:6f:
         35:ad:33:3b
-----BEGIN CERTIFICATE-----
MIIDxjCCAq6gAwIBAgIBATANBgkqhkiG9w0BAQUFADB0MRMwEQYKCZImiZPyLGQB
GRYDb3JnMRYwFAYKCZImiZPyLGQBGRYGc2ltcGxlMRMwEQYDVQQKDApTaW1wbGUg
SW5jMRcwFQYDVQQLDA5TaW1wbGUgUm9vdCBDQTEXMBUGA1UEAwwOU2ltcGxlIFJv
b3QgQ0EwHhcNMjEwNTA5MTkwMTMyWhcNMzEwNTA5MTkwMTMyWjB0MRMwEQYKCZIm
iZPyLGQBGRYDb3JnMRYwFAYKCZImiZPyLGQBGRYGc2ltcGxlMRMwEQYDVQQKDApT
aW1wbGUgSW5jMRcwFQYDVQQLDA5TaW1wbGUgUm9vdCBDQTEXMBUGA1UEAwwOU2lt
cGxlIFJvb3QgQ0EwggEiMA0GCSqGSIb3DQEBAQUAA4IBDwAwggEKAoIBAQDXoZK8
ogWRkdp9PFJC+mp470IGp+BDBv+tBVbQ+ISFZma65hqXMQfdCOJrid5F8nC5hCjr
EsuKAJ9MhFLb6XAoXDUFMAmPLoevH3nN0JA1Pf2s100hv1kNccR+7PFFzfb702rc
vyJOlefEJ7wRnLJdgFM6Sc+u72u7LfO9d/LV/SJWxYf/YPGkdw94VCi1yjkazBwx
kE/MEMl/ctKCEA7wViD485ZwWTEcqgVRhBouJmcSRQlwuPqbm8EV5RtjgBRa8YI+
x9Zz4K1quSs+df+a8qF9GDpKNNHvC2NR7mGKe/NrUQqEArN9spiSY2hxCXEjQXX4
rJW33KdeQwJp5223AgMBAAGjYzBhMA4GA1UdDwEB/wQEAwIBBjAPBgNVHRMBAf8E
BTADAQH/MB0GA1UdDgQWBBSwi8fWebuaAj1yryIIq5rUtIz7/TAfBgNVHSMEGDAW
gBSwi8fWebuaAj1yryIIq5rUtIz7/TANBgkqhkiG9w0BAQUFAAOCAQEAkaBWqgDa
FLmOuO6Ai3lysLUYcS/21Pf3gKiLjEbJLywRUTWfOX8yWnUir4mOMy9xyn3dA0Xx
KfETK/ALmJQZCaI+rCNmrlrkx1h7CCRcYsXwWYetwXK9hV1itvqAXTN0Uuaz6H8y
/Ct8ppibBHD1vB6XX+SyaE53nhpr2eH/JOy5Yp/mcXz4y69MsvBoM6lRxO1t9LLP
aLUIWyG3JrAJHyZapTw/MOD75iRk8/0PqRJCh8RHUzti/gfVv7wKENSJSzAfV9Io
hBXoSlXIKGaFBLRhGL0BMZB2yybA8gblS3idlzzSV4zDQN6pGvjFz/3nWuDePWQb
aKhcvAFvNa0zOw==
-----END CERTIFICATE-----
